target datalayout = "e-m:e-p270:32:32-p271:32:32-p272:64:64-i64:64-i128:128-f80:128-n8:16:32:64-S128"
target triple = "x86_64-pc-linux-gnu"

%"class.icu_77::UnicodeString" = type { %"class.icu_77::Replaceable", %"union.icu_77::UnicodeString::StackBufferOrFields" }
%"class.icu_77::Replaceable" = type { %"class.icu_77::UObject" }
%"class.icu_77::UObject" = type { ptr }
%"union.icu_77::UnicodeString::StackBufferOrFields" = type { %struct.anon.0, [32 x i8] }
%struct.anon.0 = type { i16, i32, i32, ptr }
%"class.icu_77::ConstChar16Ptr" = type { ptr }
%"class.icu_77::TimeZoneFormat" = type { %"class.icu_77::Format", %"class.icu_77::Locale", [4 x i8], ptr, ptr, %"class.icu_77::UnicodeString", [6 x %"class.icu_77::UnicodeString"], [10 x i32], %"class.icu_77::UnicodeString", i32, %"class.icu_77::UnicodeString", %"class.icu_77::UnicodeString", [6 x ptr], i8, ptr }
%"class.icu_77::Format" = type { %"class.icu_77::UObject", ptr, ptr }
%"class.icu_77::Locale" = type <{ %"class.icu_77::UObject", [12 x i8], [6 x i8], [4 x i8], [2 x i8], i32, [4 x i8], ptr, [157 x i8], [3 x i8], ptr, i8, [7 x i8] }>

@_ZN6icu_77L15UNKNOWN_ZONE_IDE = internal constant [12 x i16] [i16 69, i16 116, i16 99, i16 47, i16 85, i16 110, i16 107, i16 110, i16 111, i16 119, i16 110, i16 0], align 16
@_ZN6icu_77L16UNKNOWN_LOCATIONE = internal constant [8 x i16] [i16 85, i16 110, i16 107, i16 110, i16 111, i16 119, i16 110, i16 0], align 16

; Function Attrs: inlinehint mustprogress nounwind uwtable
define linkonce_odr noundef i32 @_ZNK6icu_7713UnicodeString14getShortLengthEv(ptr noundef nonnull align 8 dereferenceable(64) %0) #2 comdat align 2 {
  %2 = alloca ptr, align 8
  store ptr %0, ptr %2, align 8, !tbaa !33
  %3 = load ptr, ptr %2, align 8
  %4 = getelementptr inbounds nuw %"class.icu_77::UnicodeString", ptr %3, i32 0, i32 1
  %5 = getelementptr inbounds nuw %struct.anon.0, ptr %4, i32 0, i32 0
  %6 = load i16, ptr %5, align 8, !tbaa !37
  %7 = sext i16 %6 to i32
  %8 = ashr i32 %7, 5
  ret i32 %8
}

; Function Attrs: inlinehint mustprogress nounwind uwtable
define linkonce_odr noundef signext i8 @_ZNK6icu_7713UnicodeString14hasShortLengthEv(ptr noundef nonnull align 8 dereferenceable(64) %0) #2 comdat align 2 {
  %2 = alloca ptr, align 8
  store ptr %0, ptr %2, align 8, !tbaa !33
  %3 = load ptr, ptr %2, align 8
  %4 = getelementptr inbounds nuw %"class.icu_77::UnicodeString", ptr %3, i32 0, i32 1
  %5 = getelementptr inbounds nuw %struct.anon.0, ptr %4, i32 0, i32 0
  %6 = load i16, ptr %5, align 8, !tbaa !37
  %7 = sext i16 %6 to i32
  %8 = icmp sge i32 %7, 0
  %9 = zext i1 %8 to i8
  ret i8 %9
}

; Function Attrs: inlinehint mustprogress uwtable
define linkonce_odr noundef nonnull align 8 dereferenceable(64) ptr @_ZN6icu_7713UnicodeString5setToEPKDsi(ptr noundef nonnull align 8 dereferenceable(64) %0, ptr noundef %1, i32 noundef %2) #3 comdat align 2 {
  %4 = alloca ptr, align 8
  %5 = alloca ptr, align 8
  %6 = alloca i32, align 4
  store ptr %0, ptr %4, align 8, !tbaa !33
  store ptr %1, ptr %5, align 8, !tbaa !61
  store i32 %2, ptr %6, align 4, !tbaa !14
  %7 = load ptr, ptr %4, align 8
  call void @_ZN6icu_7713UnicodeString7unBogusEv(ptr noundef nonnull align 8 dereferenceable(64) %7)
  %8 = call noundef i32 @_ZNK6icu_7713UnicodeString6lengthEv(ptr noundef nonnull align 8 dereferenceable(64) %7)
  %9 = load ptr, ptr %5, align 8, !tbaa !61
  %10 = load i32, ptr %6, align 4, !tbaa !14
  %11 = call noundef nonnull align 8 dereferenceable(64) ptr @_ZN6icu_7713UnicodeString9doReplaceEiiPKDsii(ptr noundef nonnull align 8 dereferenceable(64) %7, i32 noundef 0, i32 noundef %8, ptr noundef %9, i32 noundef 0, i32 noundef %10)
  ret ptr %11
}

; Function Attrs: inlinehint mustprogress uwtable
define linkonce_odr noundef nonnull align 8 dereferenceable(64) ptr @_ZN6icu_7713UnicodeString5setToERKS0_(ptr noundef nonnull align 8 dereferenceable(64) %0, ptr noundef nonnull align 8 dereferenceable(64) %1) #3 comdat align 2 {
  %3 = alloca ptr, align 8
  %4 = alloca ptr, align 8
  store ptr %0, ptr %3, align 8, !tbaa !33
  store ptr %1, ptr %4, align 8, !tbaa !33
  %5 = load ptr, ptr %3, align 8
  %6 = load ptr, ptr %4, align 8, !tbaa !33
  %7 = call noundef nonnull align 8 dereferenceable(64) ptr @_ZN6icu_7713UnicodeString8copyFromERKS0_a(ptr noundef nonnull align 8 dereferenceable(64) %5, ptr noundef nonnull align 8 dereferenceable(64) %6, i8 noundef signext 0)
  ret ptr %7
}

; Function Attrs: inlinehint mustprogress uwtable
define linkonce_odr noundef i32 @_ZNK6icu_7713UnicodeString6lengthEv(ptr noundef nonnull align 8 dereferenceable(64) %0) #3 comdat align 2 {
  %2 = alloca ptr, align 8
  store ptr %0, ptr %2, align 8, !tbaa !33
  %3 = load ptr, ptr %2, align 8
  %4 = call noundef signext i8 @_ZNK6icu_7713UnicodeString14hasShortLengthEv(ptr noundef nonnull align 8 dereferenceable(64) %3)
  %5 = icmp ne i8 %4, 0
  br i1 %5, label %6, label %8

6:                                                ; preds = %1
  %7 = call noundef i32 @_ZNK6icu_7713UnicodeString14getShortLengthEv(ptr noundef nonnull align 8 dereferenceable(64) %3)
  br label %12

8:                                                ; preds = %1
  %9 = getelementptr inbounds nuw %"class.icu_77::UnicodeString", ptr %3, i32 0, i32 1
  %10 = getelementptr inbounds nuw %struct.anon.0, ptr %9, i32 0, i32 1
  %11 = load i32, ptr %10, align 4, !tbaa !37
  br label %12

12:                                               ; preds = %8, %6
  %13 = phi i32 [ %7, %6 ], [ %11, %8 ]
  ret i32 %13
}

; Function Attrs: inlinehint mustprogress nounwind uwtable
define linkonce_odr void @_ZN6icu_7714ConstChar16PtrD2Ev(ptr noundef nonnull align 8 dereferenceable(8) %0) unnamed_addr #2 comdat align 2 {
  %2 = alloca ptr, align 8
  store ptr %0, ptr %2, align 8, !tbaa !68
  %3 = load ptr, ptr %2, align 8
  %4 = getelementptr inbounds nuw %"class.icu_77::ConstChar16Ptr", ptr %3, i32 0, i32 0
  %5 = load ptr, ptr %4, align 8, !tbaa !70
  call void asm sideeffect "", "rm,~{memory},~{dirflag},~{fpsr},~{flags}"(ptr %5) #15, !srcloc !72
  ret void
}

; Function Attrs: inlinehint mustprogress nounwind uwtable
define linkonce_odr void @_ZN6icu_7714ConstChar16PtrC2EPKDs(ptr noundef nonnull align 8 dereferenceable(8) %0, ptr noundef %1) unnamed_addr #2 comdat align 2 {
  %3 = alloca ptr, align 8
  %4 = alloca ptr, align 8
  store ptr %0, ptr %3, align 8, !tbaa !68
  store ptr %1, ptr %4, align 8, !tbaa !61
  %5 = load ptr, ptr %3, align 8
  %6 = getelementptr inbounds nuw %"class.icu_77::ConstChar16Ptr", ptr %5, i32 0, i32 0
  %7 = load ptr, ptr %4, align 8, !tbaa !61
  store ptr %7, ptr %6, align 8, !tbaa !70
  ret void
}

; Function Attrs: mustprogress uwtable
define noundef nonnull align 8 dereferenceable(64) ptr @_ZNK6icu_7714TimeZoneFormat22formatExemplarLocationERKNS_8TimeZoneERNS_13UnicodeStringE(ptr noundef nonnull align 8 dereferenceable(1024) %0, ptr noundef nonnull align 8 dereferenceable(72) %1, ptr noundef nonnull align 8 dereferenceable(64) %2) #1 align 2 personality ptr @__gxx_personality_v0 {
  %4 = alloca ptr, align 8
  %5 = alloca ptr, align 8
  %6 = alloca ptr, align 8
  %7 = alloca [128 x i16], align 16
  %8 = alloca %"class.icu_77::UnicodeString", align 8
  %9 = alloca ptr, align 8
  %10 = alloca ptr, align 8
  %11 = alloca i32, align 4
  %12 = alloca %"class.icu_77::UnicodeString", align 8
  %13 = alloca %"class.icu_77::ConstChar16Ptr", align 8
  %14 = alloca %"class.icu_77::UnicodeString", align 8
  %15 = alloca %"class.icu_77::ConstChar16Ptr", align 8
  store ptr %0, ptr %4, align 8, !tbaa !39
  store ptr %1, ptr %5, align 8, !tbaa !98
  store ptr %2, ptr %6, align 8, !tbaa !33
  %16 = load ptr, ptr %4, align 8
  call void @llvm.lifetime.start.p0(i64 256, ptr %7) #15
  call void @llvm.lifetime.start.p0(i64 64, ptr %8) #15
  %17 = getelementptr inbounds [128 x i16], ptr %7, i64 0, i64 0
  call void @_ZN6icu_7713UnicodeStringC1EPDsii(ptr noundef nonnull align 8 dereferenceable(64) %8, ptr noundef %17, i32 noundef 0, i32 noundef 128)
  call void @llvm.lifetime.start.p0(i64 8, ptr %9) #15
  %18 = load ptr, ptr %5, align 8, !tbaa !98
  %19 = invoke noundef ptr @_ZN6icu_778ZoneMeta18getCanonicalCLDRIDERKNS_8TimeZoneE(ptr noundef nonnull align 8 dereferenceable(72) %18)
          to label %20 unwind label %34

20:                                               ; preds = %3
  store ptr %19, ptr %9, align 8, !tbaa !61
  %21 = load ptr, ptr %9, align 8, !tbaa !61
  %22 = icmp ne ptr %21, null
  br i1 %22, label %23, label %52

23:                                               ; preds = %20
  %24 = getelementptr inbounds nuw %"class.icu_77::TimeZoneFormat", ptr %16, i32 0, i32 3
  %25 = load ptr, ptr %24, align 8, !tbaa !43
  call void @llvm.lifetime.start.p0(i64 64, ptr %12) #15
  %26 = load ptr, ptr %9, align 8, !tbaa !61
  invoke void @_ZN6icu_7714ConstChar16PtrC2EPKDs(ptr noundef nonnull align 8 dereferenceable(8) %13, ptr noundef %26)
          to label %27 unwind label %38

27:                                               ; preds = %23
  invoke void @_ZN6icu_7713UnicodeStringC1EaNS_14ConstChar16PtrEi(ptr noundef nonnull align 8 dereferenceable(64) %12, i8 noundef signext 1, ptr noundef %13, i32 noundef -1)
          to label %28 unwind label %42

28:                                               ; preds = %27
  %29 = load ptr, ptr %25, align 8, !tbaa !25
  %30 = getelementptr inbounds ptr, ptr %29, i64 11
  %31 = load ptr, ptr %30, align 8
  %32 = invoke noundef nonnull align 8 dereferenceable(64) ptr %31(ptr noundef nonnull align 8 dereferenceable(8) %25, ptr noundef nonnull align 8 dereferenceable(64) %12, ptr noundef nonnull align 8 dereferenceable(64) %8)
          to label %33 unwind label %46

33:                                               ; preds = %28
  call void @_ZN6icu_7713UnicodeStringD1Ev(ptr noundef nonnull align 8 dereferenceable(64) %12) #15
  call void @_ZN6icu_7714ConstChar16PtrD2Ev(ptr noundef nonnull align 8 dereferenceable(8) %13) #15
  call void @llvm.lifetime.end.p0(i64 64, ptr %12) #15
  br label %52

34:                                               ; preds = %91, %73, %69, %56, %52, %3
  %35 = landingpad { ptr, i32 }
          cleanup
  %36 = extractvalue { ptr, i32 } %35, 0
  store ptr %36, ptr %10, align 8
  %37 = extractvalue { ptr, i32 } %35, 1
  store i32 %37, ptr %11, align 4
  br label %98

38:                                               ; preds = %23
  %39 = landingpad { ptr, i32 }
          cleanup
  %40 = extractvalue { ptr, i32 } %39, 0
  store ptr %40, ptr %10, align 8
  %41 = extractvalue { ptr, i32 } %39, 1
  store i32 %41, ptr %11, align 4
  br label %51

42:                                               ; preds = %27
  %43 = landingpad { ptr, i32 }
          cleanup
  %44 = extractvalue { ptr, i32 } %43, 0
  store ptr %44, ptr %10, align 8
  %45 = extractvalue { ptr, i32 } %43, 1
  store i32 %45, ptr %11, align 4
  br label %50

46:                                               ; preds = %28
  %47 = landingpad { ptr, i32 }
          cleanup
  %48 = extractvalue { ptr, i32 } %47, 0
  store ptr %48, ptr %10, align 8
  %49 = extractvalue { ptr, i32 } %47, 1
  store i32 %49, ptr %11, align 4
  call void @_ZN6icu_7713UnicodeStringD1Ev(ptr noundef nonnull align 8 dereferenceable(64) %12) #15
  br label %50

50:                                               ; preds = %46, %42
  call void @_ZN6icu_7714ConstChar16PtrD2Ev(ptr noundef nonnull align 8 dereferenceable(8) %13) #15
  br label %51

51:                                               ; preds = %50, %38
  call void @llvm.lifetime.end.p0(i64 64, ptr %12) #15
  br label %98

52:                                               ; preds = %33, %20
  %53 = invoke noundef i32 @_ZNK6icu_7713UnicodeString6lengthEv(ptr noundef nonnull align 8 dereferenceable(64) %8)
          to label %54 unwind label %34

54:                                               ; preds = %52
  %55 = icmp sgt i32 %53, 0
  br i1 %55, label %56, label %60

56:                                               ; preds = %54
  %57 = load ptr, ptr %6, align 8, !tbaa !33
  %58 = invoke noundef nonnull align 8 dereferenceable(64) ptr @_ZN6icu_7713UnicodeString5setToERKS0_(ptr noundef nonnull align 8 dereferenceable(64) %57, ptr noundef nonnull align 8 dereferenceable(64) %8)
          to label %59 unwind label %34

59:                                               ; preds = %56
  br label %96

60:                                               ; preds = %54
  %61 = getelementptr inbounds nuw %"class.icu_77::TimeZoneFormat", ptr %16, i32 0, i32 3
  %62 = load ptr, ptr %61, align 8, !tbaa !43
  call void @llvm.lifetime.start.p0(i64 64, ptr %14) #15
  invoke void @_ZN6icu_7714ConstChar16PtrC2EPKDs(ptr noundef nonnull align 8 dereferenceable(8) %15, ptr noundef @_ZN6icu_77L15UNKNOWN_ZONE_IDE)
          to label %63 unwind label %77

63:                                               ; preds = %60
  invoke void @_ZN6icu_7713UnicodeStringC1EaNS_14ConstChar16PtrEi(ptr noundef nonnull align 8 dereferenceable(64) %14, i8 noundef signext 1, ptr noundef %15, i32 noundef -1)
          to label %64 unwind label %81

64:                                               ; preds = %63
  %65 = load ptr, ptr %62, align 8, !tbaa !25
  %66 = getelementptr inbounds ptr, ptr %65, i64 11
  %67 = load ptr, ptr %66, align 8
  %68 = invoke noundef nonnull align 8 dereferenceable(64) ptr %67(ptr noundef nonnull align 8 dereferenceable(8) %62, ptr noundef nonnull align 8 dereferenceable(64) %14, ptr noundef nonnull align 8 dereferenceable(64) %8)
          to label %69 unwind label %85

69:                                               ; preds = %64
  call void @_ZN6icu_7713UnicodeStringD1Ev(ptr noundef nonnull align 8 dereferenceable(64) %14) #15
  call void @_ZN6icu_7714ConstChar16PtrD2Ev(ptr noundef nonnull align 8 dereferenceable(8) %15) #15
  call void @llvm.lifetime.end.p0(i64 64, ptr %14) #15
  %70 = invoke noundef i32 @_ZNK6icu_7713UnicodeString6lengthEv(ptr noundef nonnull align 8 dereferenceable(64) %8)
          to label %71 unwind label %34

71:                                               ; preds = %69
  %72 = icmp sgt i32 %70, 0
  br i1 %72, label %73, label %91

73:                                               ; preds = %71
  %74 = load ptr, ptr %6, align 8, !tbaa !33
  %75 = invoke noundef nonnull align 8 dereferenceable(64) ptr @_ZN6icu_7713UnicodeString5setToERKS0_(ptr noundef nonnull align 8 dereferenceable(64) %74, ptr noundef nonnull align 8 dereferenceable(64) %8)
          to label %76 unwind label %34

76:                                               ; preds = %73
  br label %95

77:                                               ; preds = %60
  %78 = landingpad { ptr, i32 }
          cleanup
  %79 = extractvalue { ptr, i32 } %78, 0
  store ptr %79, ptr %10, align 8
  %80 = extractvalue { ptr, i32 } %78, 1
  store i32 %80, ptr %11, align 4
  br label %90

81:                                               ; preds = %63
  %82 = landingpad { ptr, i32 }
          cleanup
  %83 = extractvalue { ptr, i32 } %82, 0
  store ptr %83, ptr %10, align 8
  %84 = extractvalue { ptr, i32 } %82, 1
  store i32 %84, ptr %11, align 4
  br label %89

85:                                               ; preds = %64
  %86 = landingpad { ptr, i32 }
          cleanup
  %87 = extractvalue { ptr, i32 } %86, 0
  store ptr %87, ptr %10, align 8
  %88 = extractvalue { ptr, i32 } %86, 1
  store i32 %88, ptr %11, align 4
  call void @_ZN6icu_7713UnicodeStringD1Ev(ptr noundef nonnull align 8 dereferenceable(64) %14) #15
  br label %89

89:                                               ; preds = %85, %81
  call void @_ZN6icu_7714ConstChar16PtrD2Ev(ptr noundef nonnull align 8 dereferenceable(8) %15) #15
  br label %90

90:                                               ; preds = %89, %77
  call void @llvm.lifetime.end.p0(i64 64, ptr %14) #15
  br label %98

91:                                               ; preds = %71
  %92 = load ptr, ptr %6, align 8, !tbaa !33
  %93 = invoke noundef nonnull align 8 dereferenceable(64) ptr @_ZN6icu_7713UnicodeString5setToEPKDsi(ptr noundef nonnull align 8 dereferenceable(64) %92, ptr noundef @_ZN6icu_77L16UNKNOWN_LOCATIONE, i32 noundef -1)
          to label %94 unwind label %34

94:                                               ; preds = %91
  br label %95

95:                                               ; preds = %94, %76
  br label %96

96:                                               ; preds = %95, %59
  %97 = load ptr, ptr %6, align 8, !tbaa !33
  call void @llvm.lifetime.end.p0(i64 8, ptr %9) #15
  call void @_ZN6icu_7713UnicodeStringD1Ev(ptr noundef nonnull align 8 dereferenceable(64) %8) #15
  call void @llvm.lifetime.end.p0(i64 64, ptr %8) #15
  call void @llvm.lifetime.end.p0(i64 256, ptr %7) #15
  ret ptr %97

98:                                               ; preds = %90, %51, %34
  call void @llvm.lifetime.end.p0(i64 8, ptr %9) #15
  call void @_ZN6icu_7713UnicodeStringD1Ev(ptr noundef nonnull align 8 dereferenceable(64) %8) #15
  call void @llvm.lifetime.end.p0(i64 64, ptr %8) #15
  call void @llvm.lifetime.end.p0(i64 256, ptr %7) #15
  br label %99

99:                                               ; preds = %98
  %100 = load ptr, ptr %10, align 8
  %101 = load i32, ptr %11, align 4
  %102 = insertvalue { ptr, i32 } poison, ptr %100, 0
  %103 = insertvalue { ptr, i32 } %102, i32 %101, 1
  resume { ptr, i32 } %103
}