; Function Attrs: mustprogress uwtable
define noundef nonnull align 8 dereferenceable(64) ptr @_ZNK6icu_7714TimeZoneFormat22formatExemplarLocationERKNS_8TimeZoneERNS_13UnicodeStringE(ptr noundef nonnull readonly align 8 captures(none) dereferenceable(1024) %0, ptr noundef nonnull align 8 dereferenceable(72) %1, ptr noundef nonnull returned align 8 dereferenceable(64) %2) local_unnamed_addr #1 align 2 personality ptr @__gxx_personality_v0 {
  %4 = alloca [128 x i16], align 16
  %5 = alloca %"class.icu_77::UnicodeString", align 8
  %6 = alloca %"class.icu_77::UnicodeString", align 8
  %7 = alloca %"class.icu_77::ConstChar16Ptr", align 8
  %8 = alloca %"class.icu_77::UnicodeString", align 8
  %9 = alloca %"class.icu_77::ConstChar16Ptr", align 8
  call void @llvm.lifetime.start.p0(i64 256, ptr nonnull %4) #22
  call void @llvm.lifetime.start.p0(i64 64, ptr nonnull %5) #22
  call void @_ZN6icu_7713UnicodeStringC1EPDsii(ptr noundef nonnull align 8 dereferenceable(64) %5, ptr noundef nonnull %4, i32 noundef 0, i32 noundef 128)
  %10 = invoke noundef ptr @_ZN6icu_778ZoneMeta18getCanonicalCLDRIDERKNS_8TimeZoneE(ptr noundef nonnull align 8 dereferenceable(72) %1)
          to label %11 unwind label %22

11:                                               ; preds = %3
  %.not = icmp eq ptr %10, null
  br i1 %.not, label %30, label %12

12:                                               ; preds = %11
  %13 = getelementptr inbounds nuw i8, ptr %0, i64 256
  %14 = load ptr, ptr %13, align 8, !tbaa !41
  call void @llvm.lifetime.start.p0(i64 64, ptr nonnull %6) #22
  store ptr %10, ptr %7, align 8, !tbaa !42
  invoke void @_ZN6icu_7713UnicodeStringC1EaNS_14ConstChar16PtrEi(ptr noundef nonnull align 8 dereferenceable(64) %6, i8 noundef signext 1, ptr noundef nonnull %7, i32 noundef -1)
          to label %15 unwind label %24

15:                                               ; preds = %12
  %16 = load ptr, ptr %14, align 8, !tbaa !15
  %17 = getelementptr inbounds nuw i8, ptr %16, i64 88
  %18 = load ptr, ptr %17, align 8
  %19 = invoke noundef nonnull align 8 dereferenceable(64) ptr %18(ptr noundef nonnull align 8 dereferenceable(8) %14, ptr noundef nonnull align 8 dereferenceable(64) %6, ptr noundef nonnull align 8 dereferenceable(64) %5)
          to label %20 unwind label %26

20:                                               ; preds = %15
  call void @_ZN6icu_7713UnicodeStringD1Ev(ptr noundef nonnull align 8 dereferenceable(64) %6) #22
  %21 = load ptr, ptr %7, align 8, !tbaa !42
  call void asm sideeffect "", "rm,~{memory},~{dirflag},~{fpsr},~{flags}"(ptr %21) #22, !srcloc !44
  call void @llvm.lifetime.end.p0(i64 64, ptr nonnull %6) #22
  br label %30

22:                                               ; preds = %.invoke, %.noexc, %64, %3
  %23 = landingpad { ptr, i32 }
          cleanup
  br label %74

24:                                               ; preds = %12
  %25 = landingpad { ptr, i32 }
          cleanup
  br label %28

26:                                               ; preds = %15
  %27 = landingpad { ptr, i32 }
          cleanup
  call void @_ZN6icu_7713UnicodeStringD1Ev(ptr noundef nonnull align 8 dereferenceable(64) %6) #22
  br label %28

28:                                               ; preds = %26, %24
  %.pn = phi { ptr, i32 } [ %27, %26 ], [ %25, %24 ]
  %29 = load ptr, ptr %7, align 8, !tbaa !42
  call void asm sideeffect "", "rm,~{memory},~{dirflag},~{fpsr},~{flags}"(ptr %29) #22, !srcloc !44
  call void @llvm.lifetime.end.p0(i64 64, ptr nonnull %6) #22
  br label %74

30:                                               ; preds = %11, %20
  %31 = getelementptr inbounds nuw i8, ptr %5, i64 8
  %32 = load i16, ptr %31, align 8, !tbaa !23
  %33 = icmp slt i16 %32, 0
  %34 = ashr i16 %32, 5
  %35 = sext i16 %34 to i32
  %36 = getelementptr inbounds nuw i8, ptr %5, i64 12
  %37 = load i32, ptr %36, align 4
  %38 = select i1 %33, i32 %37, i32 %35
  %39 = icmp sgt i32 %38, 0
  br i1 %39, label %.invoke, label %40

40:                                               ; preds = %30
  %41 = getelementptr inbounds nuw i8, ptr %0, i64 256
  %42 = load ptr, ptr %41, align 8, !tbaa !41
  call void @llvm.lifetime.start.p0(i64 64, ptr nonnull %8) #22
  store ptr @_ZN6icu_77L15UNKNOWN_ZONE_IDE, ptr %9, align 8, !tbaa !42
  invoke void @_ZN6icu_7713UnicodeStringC1EaNS_14ConstChar16PtrEi(ptr noundef nonnull align 8 dereferenceable(64) %8, i8 noundef signext 1, ptr noundef nonnull %9, i32 noundef -1)
          to label %43 unwind label %58

43:                                               ; preds = %40
  %44 = load ptr, ptr %42, align 8, !tbaa !15
  %45 = getelementptr inbounds nuw i8, ptr %44, i64 88
  %46 = load ptr, ptr %45, align 8
  %47 = invoke noundef nonnull align 8 dereferenceable(64) ptr %46(ptr noundef nonnull align 8 dereferenceable(8) %42, ptr noundef nonnull align 8 dereferenceable(64) %8, ptr noundef nonnull align 8 dereferenceable(64) %5)
          to label %48 unwind label %60

48:                                               ; preds = %43
  call void @_ZN6icu_7713UnicodeStringD1Ev(ptr noundef nonnull align 8 dereferenceable(64) %8) #22
  %49 = load ptr, ptr %9, align 8, !tbaa !42
  call void asm sideeffect "", "rm,~{memory},~{dirflag},~{fpsr},~{flags}"(ptr %49) #22, !srcloc !44
  call void @llvm.lifetime.end.p0(i64 64, ptr nonnull %8) #22
  %50 = load i16, ptr %31, align 8, !tbaa !23
  %51 = icmp slt i16 %50, 0
  %52 = ashr i16 %50, 5
  %53 = sext i16 %52 to i32
  %54 = load i32, ptr %36, align 4
  %55 = select i1 %51, i32 %54, i32 %53
  %56 = icmp sgt i32 %55, 0
  br i1 %56, label %.invoke, label %64

.invoke:                                          ; preds = %48, %30
  %57 = invoke noundef nonnull align 8 dereferenceable(64) ptr @_ZN6icu_7713UnicodeString8copyFromERKS0_a(ptr noundef nonnull align 8 dereferenceable(64) %2, ptr noundef nonnull align 8 dereferenceable(64) %5, i8 noundef signext 0)
          to label %_ZN6icu_7713UnicodeString5setToERKS0_.exit unwind label %22

58:                                               ; preds = %40
  %59 = landingpad { ptr, i32 }
          cleanup
  br label %62

60:                                               ; preds = %43
  %61 = landingpad { ptr, i32 }
          cleanup
  call void @_ZN6icu_7713UnicodeStringD1Ev(ptr noundef nonnull align 8 dereferenceable(64) %8) #22
  br label %62

62:                                               ; preds = %60, %58
  %.pn14 = phi { ptr, i32 } [ %61, %60 ], [ %59, %58 ]
  %63 = load ptr, ptr %9, align 8, !tbaa !42
  call void asm sideeffect "", "rm,~{memory},~{dirflag},~{fpsr},~{flags}"(ptr %63) #22, !srcloc !44
  call void @llvm.lifetime.end.p0(i64 64, ptr nonnull %8) #22
  br label %74

64:                                               ; preds = %48
  invoke void @_ZN6icu_7713UnicodeString7unBogusEv(ptr noundef nonnull align 8 dereferenceable(64) %2)
          to label %.noexc unwind label %22

.noexc:                                           ; preds = %64
  %65 = getelementptr inbounds nuw i8, ptr %2, i64 8
  %66 = load i16, ptr %65, align 8, !tbaa !23
  %67 = icmp slt i16 %66, 0
  %68 = ashr i16 %66, 5
  %69 = sext i16 %68 to i32
  %70 = getelementptr inbounds nuw i8, ptr %2, i64 12
  %71 = load i32, ptr %70, align 4
  %72 = select i1 %67, i32 %71, i32 %69
  %73 = invoke noundef nonnull align 8 dereferenceable(64) ptr @_ZN6icu_7713UnicodeString9doReplaceEiiPKDsii(ptr noundef nonnull align 8 dereferenceable(64) %2, i32 noundef 0, i32 noundef %72, ptr noundef nonnull @_ZN6icu_77L16UNKNOWN_LOCATIONE, i32 noundef 0, i32 noundef -1)
          to label %_ZN6icu_7713UnicodeString5setToERKS0_.exit unwind label %22

_ZN6icu_7713UnicodeString5setToERKS0_.exit:       ; preds = %.invoke, %.noexc
  call void @_ZN6icu_7713UnicodeStringD1Ev(ptr noundef nonnull align 8 dereferenceable(64) %5) #22
  call void @llvm.lifetime.end.p0(i64 64, ptr nonnull %5) #22
  call void @llvm.lifetime.end.p0(i64 256, ptr nonnull %4) #22
  ret ptr %2

74:                                               ; preds = %62, %28, %22
  %.pn16 = phi { ptr, i32 } [ %23, %22 ], [ %.pn14, %62 ], [ %.pn, %28 ]
  call void @_ZN6icu_7713UnicodeStringD1Ev(ptr noundef nonnull align 8 dereferenceable(64) %5) #22
  call void @llvm.lifetime.end.p0(i64 64, ptr nonnull %5) #22
  call void @llvm.lifetime.end.p0(i64 256, ptr nonnull %4) #22
  resume { ptr, i32 } %.pn16
}